target datalayout = "e-m:e-p270:32:32-p271:32:32-p272:64:64-i64:64-i128:128-f80:128-n8:16:32:64-S128"
target triple = "x86_64-pc-linux-gnu"

%struct.pm_lex_mode = type { i32, %union.anon, ptr }
%union.anon = type { %struct.anon.3 }
%struct.anon.3 = type { %struct.pm_heredoc_lex_mode_t, ptr, ptr, i8 }
%struct.pm_heredoc_lex_mode_t = type { ptr, i64, i32, i32 }
%struct.pm_parser = type { i32, i32, i32, i32, i32, i32, i32, %struct.anon, ptr, ptr, %struct.pm_token_t, %struct.pm_token_t, ptr, ptr, %struct.pm_list_t, %struct.pm_list_t, %struct.pm_location_t, %struct.pm_list_t, %struct.pm_list_t, ptr, ptr, ptr, ptr, ptr, ptr, ptr, %struct.pm_string_t, %struct.pm_constant_pool_t, %struct.pm_newline_list_t, i16, %struct.pm_string_t, i32, ptr, ptr, i32, i8, i8, i8, i8, i8, i8, i8, i8, i8, i8, i8, i8, i8 }
%struct.anon = type { ptr, [4 x %struct.pm_lex_mode], i64 }
%struct.pm_token_t = type { i32, ptr, ptr }
%struct.pm_location_t = type { ptr, ptr }
%struct.pm_list_t = type { i64, ptr, ptr }
%struct.pm_constant_pool_t = type { ptr, ptr, i32, i32 }
%struct.pm_newline_list_t = type { ptr, i64, i64, ptr }
%struct.pm_string_t = type { ptr, i64, i32 }
%struct.pm_node = type { i16, i16, i32, %struct.pm_location_t }
%struct.pm_range_node = type { %struct.pm_node, ptr, ptr, %struct.pm_location_t }

@stderr = external global ptr, align 8
@.str.94 = private unnamed_addr constant [29 x i8] c"Failed to allocate %d bytes\0A\00", align 1

; Function Attrs: inlinehint nounwind sspstrong uwtable
define internal void @pm_parser_err(ptr noundef %0, ptr noundef %1, ptr noundef %2, i32 noundef %3) #7 {
  %5 = alloca ptr, align 8
  %6 = alloca ptr, align 8
  %7 = alloca ptr, align 8
  %8 = alloca i32, align 4
  store ptr %0, ptr %5, align 8, !tbaa !7
  store ptr %1, ptr %6, align 8, !tbaa !12
  store ptr %2, ptr %7, align 8, !tbaa !12
  store i32 %3, ptr %8, align 4, !tbaa !52
  %9 = load ptr, ptr %5, align 8, !tbaa !7
  %10 = getelementptr inbounds nuw %struct.pm_parser, ptr %9, i32 0, i32 18
  %11 = load ptr, ptr %6, align 8, !tbaa !12
  %12 = load ptr, ptr %7, align 8, !tbaa !12
  %13 = load i32, ptr %8, align 4, !tbaa !52
  %14 = call zeroext i1 @pm_diagnostic_list_append(ptr noundef %10, ptr noundef %11, ptr noundef %12, i32 noundef %13)
  ret void
}

; Function Attrs: inlinehint nounwind sspstrong uwtable
define internal void @pm_parser_err_node(ptr noundef %0, ptr noundef %1, i32 noundef %2) #7 {
  %4 = alloca ptr, align 8
  %5 = alloca ptr, align 8
  %6 = alloca i32, align 4
  store ptr %0, ptr %4, align 8, !tbaa !7
  store ptr %1, ptr %5, align 8, !tbaa !128
  store i32 %2, ptr %6, align 4, !tbaa !52
  %7 = load ptr, ptr %4, align 8, !tbaa !7
  %8 = load ptr, ptr %5, align 8, !tbaa !128
  %9 = getelementptr inbounds nuw %struct.pm_node, ptr %8, i32 0, i32 3
  %10 = getelementptr inbounds nuw %struct.pm_location_t, ptr %9, i32 0, i32 0
  %11 = load ptr, ptr %10, align 8, !tbaa !223
  %12 = load ptr, ptr %5, align 8, !tbaa !128
  %13 = getelementptr inbounds nuw %struct.pm_node, ptr %12, i32 0, i32 3
  %14 = getelementptr inbounds nuw %struct.pm_location_t, ptr %13, i32 0, i32 1
  %15 = load ptr, ptr %14, align 8, !tbaa !224
  %16 = load i32, ptr %6, align 4, !tbaa !52
  call void @pm_parser_err(ptr noundef %7, ptr noundef %11, ptr noundef %15, i32 noundef %16)
  ret void
}

; Function Attrs: inlinehint nounwind sspstrong uwtable
define internal ptr @pm_node_alloc(ptr noundef %0, i64 noundef %1) #7 {
  %3 = alloca ptr, align 8
  %4 = alloca i64, align 8
  %5 = alloca ptr, align 8
  store ptr %0, ptr %3, align 8, !tbaa !7
  store i64 %1, ptr %4, align 8, !tbaa !14
  call void @llvm.lifetime.start.p0(i64 8, ptr %5) #15
  %6 = load i64, ptr %4, align 8, !tbaa !14
  %7 = call noalias ptr @calloc(i64 noundef 1, i64 noundef %6) #18
  store ptr %7, ptr %5, align 8, !tbaa !57
  %8 = load ptr, ptr %5, align 8, !tbaa !57
  %9 = icmp eq ptr %8, null
  br i1 %9, label %10, label %15

10:                                               ; preds = %2
  %11 = load ptr, ptr @stderr, align 8, !tbaa !452
  %12 = load i64, ptr %4, align 8, !tbaa !14
  %13 = trunc i64 %12 to i32
  %14 = call i32 (ptr, i32, ptr, ...) @__fprintf_chk(ptr noundef %11, i32 noundef 1, ptr noundef @.str.94, i32 noundef %13)
  call void @abort() #19
  unreachable

15:                                               ; preds = %2
  %16 = load ptr, ptr %5, align 8, !tbaa !57
  call void @llvm.lifetime.end.p0(i64 8, ptr %5) #15
  ret ptr %16
}

; Function Attrs: inlinehint nounwind sspstrong uwtable
define internal void @pm_assert_value_expression(ptr noundef %0, ptr noundef %1) #7 {
  %3 = alloca ptr, align 8
  %4 = alloca ptr, align 8
  %5 = alloca ptr, align 8
  store ptr %0, ptr %3, align 8, !tbaa !7
  store ptr %1, ptr %4, align 8, !tbaa !128
  call void @llvm.lifetime.start.p0(i64 8, ptr %5) #15
  %6 = load ptr, ptr %3, align 8, !tbaa !7
  %7 = load ptr, ptr %4, align 8, !tbaa !128
  %8 = call ptr @pm_check_value_expression(ptr noundef %6, ptr noundef %7)
  store ptr %8, ptr %5, align 8, !tbaa !128
  %9 = load ptr, ptr %5, align 8, !tbaa !128
  %10 = icmp ne ptr %9, null
  br i1 %10, label %11, label %14

11:                                               ; preds = %2
  %12 = load ptr, ptr %3, align 8, !tbaa !7
  %13 = load ptr, ptr %5, align 8, !tbaa !128
  call void @pm_parser_err_node(ptr noundef %12, ptr noundef %13, i32 noundef 283)
  br label %14

14:                                               ; preds = %11, %2
  call void @llvm.lifetime.end.p0(i64 8, ptr %5) #15
  ret void
}

; Function Attrs: nounwind sspstrong uwtable
define internal ptr @pm_range_node_create(ptr noundef %0, ptr noundef %1, ptr noundef %2, ptr noundef %3) #0 {
  %5 = alloca ptr, align 8
  %6 = alloca ptr, align 8
  %7 = alloca ptr, align 8
  %8 = alloca ptr, align 8
  %9 = alloca ptr, align 8
  %10 = alloca i16, align 2
  %11 = alloca %struct.pm_range_node, align 8
  store ptr %0, ptr %5, align 8, !tbaa !7
  store ptr %1, ptr %6, align 8, !tbaa !128
  store ptr %2, ptr %7, align 8, !tbaa !57
  store ptr %3, ptr %8, align 8, !tbaa !128
  %12 = load ptr, ptr %5, align 8, !tbaa !7
  %13 = load ptr, ptr %6, align 8, !tbaa !128
  call void @pm_assert_value_expression(ptr noundef %12, ptr noundef %13)
  %14 = load ptr, ptr %5, align 8, !tbaa !7
  %15 = load ptr, ptr %8, align 8, !tbaa !128
  call void @pm_assert_value_expression(ptr noundef %14, ptr noundef %15)
  call void @llvm.lifetime.start.p0(i64 8, ptr %9) #15
  %16 = load ptr, ptr %5, align 8, !tbaa !7
  %17 = call ptr @pm_node_alloc(ptr noundef %16, i64 noundef 56)
  store ptr %17, ptr %9, align 8, !tbaa !220
  call void @llvm.lifetime.start.p0(i64 2, ptr %10) #15
  store i16 0, ptr %10, align 2, !tbaa !59
  %18 = load ptr, ptr %7, align 8, !tbaa !57
  %19 = getelementptr inbounds nuw %struct.pm_token_t, ptr %18, i32 0, i32 0
  %20 = load i32, ptr %19, align 8, !tbaa !42
  %21 = icmp eq i32 %20, 32
  br i1 %21, label %27, label %22

22:                                               ; preds = %4
  %23 = load ptr, ptr %7, align 8, !tbaa !57
  %24 = getelementptr inbounds nuw %struct.pm_token_t, ptr %23, i32 0, i32 0
  %25 = load i32, ptr %24, align 8, !tbaa !42
  %26 = icmp eq i32 %25, 157
  br i1 %26, label %27, label %32

27:                                               ; preds = %22, %4
  %28 = load i16, ptr %10, align 2, !tbaa !59
  %29 = zext i16 %28 to i32
  %30 = or i32 %29, 4
  %31 = trunc i32 %30 to i16
  store i16 %31, ptr %10, align 2, !tbaa !59
  br label %32

32:                                               ; preds = %27, %22
  %33 = load ptr, ptr %6, align 8, !tbaa !128
  %34 = icmp eq ptr %33, null
  br i1 %34, label %47, label %35

35:                                               ; preds = %32
  %36 = load ptr, ptr %6, align 8, !tbaa !128
  %37 = getelementptr inbounds nuw %struct.pm_node, ptr %36, i32 0, i32 0
  %38 = load i16, ptr %37, align 8, !tbaa !206
  %39 = zext i16 %38 to i32
  %40 = icmp eq i32 %39, 108
  br i1 %40, label %47, label %41

41:                                               ; preds = %35
  %42 = load ptr, ptr %6, align 8, !tbaa !128
  %43 = getelementptr inbounds nuw %struct.pm_node, ptr %42, i32 0, i32 0
  %44 = load i16, ptr %43, align 8, !tbaa !206
  %45 = zext i16 %44 to i32
  %46 = icmp eq i32 %45, 82
  br i1 %46, label %47, label %67

47:                                               ; preds = %41, %35, %32
  %48 = load ptr, ptr %8, align 8, !tbaa !128
  %49 = icmp eq ptr %48, null
  br i1 %49, label %62, label %50

50:                                               ; preds = %47
  %51 = load ptr, ptr %8, align 8, !tbaa !128
  %52 = getelementptr inbounds nuw %struct.pm_node, ptr %51, i32 0, i32 0
  %53 = load i16, ptr %52, align 8, !tbaa !206
  %54 = zext i16 %53 to i32
  %55 = icmp eq i32 %54, 108
  br i1 %55, label %62, label %56

56:                                               ; preds = %50
  %57 = load ptr, ptr %8, align 8, !tbaa !128
  %58 = getelementptr inbounds nuw %struct.pm_node, ptr %57, i32 0, i32 0
  %59 = load i16, ptr %58, align 8, !tbaa !206
  %60 = zext i16 %59 to i32
  %61 = icmp eq i32 %60, 82
  br i1 %61, label %62, label %67

62:                                               ; preds = %56, %50, %47
  %63 = load i16, ptr %10, align 2, !tbaa !59
  %64 = zext i16 %63 to i32
  %65 = or i32 %64, 2
  %66 = trunc i32 %65 to i16
  store i16 %66, ptr %10, align 2, !tbaa !59
  br label %67

67:                                               ; preds = %62, %56, %41
  %68 = load ptr, ptr %9, align 8, !tbaa !220
  %69 = getelementptr inbounds nuw %struct.pm_range_node, ptr %11, i32 0, i32 0
  %70 = getelementptr inbounds nuw %struct.pm_node, ptr %69, i32 0, i32 0
  store i16 122, ptr %70, align 8, !tbaa !206
  %71 = getelementptr inbounds nuw %struct.pm_node, ptr %69, i32 0, i32 1
  %72 = load i16, ptr %10, align 2, !tbaa !59
  store i16 %72, ptr %71, align 2, !tbaa !222
  %73 = getelementptr inbounds nuw %struct.pm_node, ptr %69, i32 0, i32 2
  %74 = load ptr, ptr %5, align 8, !tbaa !7
  %75 = getelementptr inbounds nuw %struct.pm_parser, ptr %74, i32 0, i32 0
  %76 = load i32, ptr %75, align 8, !tbaa !238
  %77 = add i32 %76, 1
  store i32 %77, ptr %75, align 8, !tbaa !238
  store i32 %77, ptr %73, align 4, !tbaa !239
  %78 = getelementptr inbounds nuw %struct.pm_node, ptr %69, i32 0, i32 3
  %79 = getelementptr inbounds nuw %struct.pm_location_t, ptr %78, i32 0, i32 0
  %80 = load ptr, ptr %6, align 8, !tbaa !128
  %81 = icmp eq ptr %80, null
  br i1 %81, label %82, label %86

82:                                               ; preds = %67
  %83 = load ptr, ptr %7, align 8, !tbaa !57
  %84 = getelementptr inbounds nuw %struct.pm_token_t, ptr %83, i32 0, i32 1
  %85 = load ptr, ptr %84, align 8, !tbaa !43
  br label %91

86:                                               ; preds = %67
  %87 = load ptr, ptr %6, align 8, !tbaa !128
  %88 = getelementptr inbounds nuw %struct.pm_node, ptr %87, i32 0, i32 3
  %89 = getelementptr inbounds nuw %struct.pm_location_t, ptr %88, i32 0, i32 0
  %90 = load ptr, ptr %89, align 8, !tbaa !223
  br label %91

91:                                               ; preds = %86, %82
  %92 = phi ptr [ %85, %82 ], [ %90, %86 ]
  store ptr %92, ptr %79, align 8, !tbaa !152
  %93 = getelementptr inbounds nuw %struct.pm_location_t, ptr %78, i32 0, i32 1
  %94 = load ptr, ptr %8, align 8, !tbaa !128
  %95 = icmp eq ptr %94, null
  br i1 %95, label %96, label %100

96:                                               ; preds = %91
  %97 = load ptr, ptr %7, align 8, !tbaa !57
  %98 = getelementptr inbounds nuw %struct.pm_token_t, ptr %97, i32 0, i32 2
  %99 = load ptr, ptr %98, align 8, !tbaa !44
  br label %105

100:                                              ; preds = %91
  %101 = load ptr, ptr %8, align 8, !tbaa !128
  %102 = getelementptr inbounds nuw %struct.pm_node, ptr %101, i32 0, i32 3
  %103 = getelementptr inbounds nuw %struct.pm_location_t, ptr %102, i32 0, i32 1
  %104 = load ptr, ptr %103, align 8, !tbaa !224
  br label %105

105:                                              ; preds = %100, %96
  %106 = phi ptr [ %99, %96 ], [ %104, %100 ]
  store ptr %106, ptr %93, align 8, !tbaa !153
  %107 = getelementptr inbounds nuw %struct.pm_range_node, ptr %11, i32 0, i32 1
  %108 = load ptr, ptr %6, align 8, !tbaa !128
  store ptr %108, ptr %107, align 8, !tbaa !510
  %109 = getelementptr inbounds nuw %struct.pm_range_node, ptr %11, i32 0, i32 2
  %110 = load ptr, ptr %8, align 8, !tbaa !128
  store ptr %110, ptr %109, align 8, !tbaa !327
  %111 = getelementptr inbounds nuw %struct.pm_range_node, ptr %11, i32 0, i32 3
  %112 = getelementptr inbounds nuw %struct.pm_location_t, ptr %111, i32 0, i32 0
  %113 = load ptr, ptr %7, align 8, !tbaa !57
  %114 = getelementptr inbounds nuw %struct.pm_token_t, ptr %113, i32 0, i32 1
  %115 = load ptr, ptr %114, align 8, !tbaa !43
  store ptr %115, ptr %112, align 8, !tbaa !152
  %116 = getelementptr inbounds nuw %struct.pm_location_t, ptr %111, i32 0, i32 1
  %117 = load ptr, ptr %7, align 8, !tbaa !57
  %118 = getelementptr inbounds nuw %struct.pm_token_t, ptr %117, i32 0, i32 2
  %119 = load ptr, ptr %118, align 8, !tbaa !44
  store ptr %119, ptr %116, align 8, !tbaa !153
  call void @llvm.memcpy.p0.p0.i64(ptr align 8 %68, ptr align 8 %11, i64 56, i1 false), !tbaa.struct !465
  %120 = load ptr, ptr %9, align 8, !tbaa !220
  call void @llvm.lifetime.end.p0(i64 2, ptr %10) #15
  call void @llvm.lifetime.end.p0(i64 8, ptr %9) #15
  ret ptr %120
}