; Function Attrs: nounwind sspstrong uwtable
define internal fastcc noalias nonnull ptr @pm_range_node_create(ptr noundef %0, ptr noundef %1, ptr noundef nonnull readonly captures(none) %2, ptr noundef %3) unnamed_addr #1 {
  %5 = tail call fastcc ptr @pm_check_value_expression(ptr noundef %0, ptr noundef %1)
  %.not.i = icmp eq ptr %5, null
  br i1 %.not.i, label %pm_assert_value_expression.exit, label %6

6:                                                ; preds = %4
  %7 = getelementptr i8, ptr %5, i64 8
  %.val.i = load ptr, ptr %7, align 8, !tbaa !131
  %8 = getelementptr i8, ptr %5, i64 16
  %.val5.i = load ptr, ptr %8, align 8, !tbaa !132
  %9 = getelementptr inbounds nuw i8, ptr %0, i64 472
  %10 = tail call zeroext i1 @pm_diagnostic_list_append(ptr noundef nonnull %9, ptr noundef %.val.i, ptr noundef %.val5.i, i32 noundef 283) #31
  br label %pm_assert_value_expression.exit

pm_assert_value_expression.exit:                  ; preds = %4, %6
  %11 = tail call fastcc ptr @pm_check_value_expression(ptr noundef %0, ptr noundef %3)
  %.not.i37 = icmp eq ptr %11, null
  br i1 %.not.i37, label %pm_assert_value_expression.exit40, label %12

12:                                               ; preds = %pm_assert_value_expression.exit
  %13 = getelementptr i8, ptr %11, i64 8
  %.val.i38 = load ptr, ptr %13, align 8, !tbaa !131
  %14 = getelementptr i8, ptr %11, i64 16
  %.val5.i39 = load ptr, ptr %14, align 8, !tbaa !132
  %15 = getelementptr inbounds nuw i8, ptr %0, i64 472
  %16 = tail call zeroext i1 @pm_diagnostic_list_append(ptr noundef nonnull %15, ptr noundef %.val.i38, ptr noundef %.val5.i39, i32 noundef 283) #31
  br label %pm_assert_value_expression.exit40

pm_assert_value_expression.exit40:                ; preds = %pm_assert_value_expression.exit, %12
  %17 = tail call noalias dereferenceable_or_null(56) ptr @calloc(i64 noundef 1, i64 noundef 56) #34
  %18 = icmp eq ptr %17, null
  br i1 %18, label %19, label %pm_node_alloc.exit

19:                                               ; preds = %pm_assert_value_expression.exit40
  %20 = load ptr, ptr @stderr, align 8, !tbaa !105
  %21 = tail call i32 (ptr, i32, ptr, ...) @__fprintf_chk(ptr noundef %20, i32 noundef 1, ptr noundef nonnull @.str.94, i32 noundef 56) #31
  tail call void @abort() #35
  unreachable

pm_node_alloc.exit:                               ; preds = %pm_assert_value_expression.exit40
  %22 = load i32, ptr %2, align 8, !tbaa !124
  %switch.selectcmp.case1 = icmp eq i32 %22, 32
  %switch.selectcmp.case2 = icmp eq i32 %22, 157
  %switch.selectcmp = or i1 %switch.selectcmp.case1, %switch.selectcmp.case2
  %23 = select i1 %switch.selectcmp, i16 4, i16 0
  %24 = icmp eq ptr %1, null
  br i1 %24, label %27, label %25

25:                                               ; preds = %pm_node_alloc.exit
  %26 = load i16, ptr %1, align 8, !tbaa !113
  switch i16 %26, label %33 [
    i16 108, label %27
    i16 82, label %27
  ]

27:                                               ; preds = %25, %25, %pm_node_alloc.exit
  %28 = icmp eq ptr %3, null
  br i1 %28, label %31, label %29

29:                                               ; preds = %27
  %30 = load i16, ptr %3, align 8, !tbaa !113
  switch i16 %30, label %33 [
    i16 108, label %31
    i16 82, label %31
  ]

31:                                               ; preds = %29, %29, %27
  %32 = or disjoint i16 %23, 2
  br label %33

33:                                               ; preds = %29, %25, %31
  %.1 = phi i16 [ %32, %31 ], [ %23, %25 ], [ %23, %29 ]
  %34 = load i32, ptr %0, align 8, !tbaa !107
  %35 = add i32 %34, 1
  store i32 %35, ptr %0, align 8, !tbaa !107
  %. = select i1 %24, ptr %2, ptr %1
  %.in = getelementptr inbounds nuw i8, ptr %., i64 8
  %36 = load ptr, ptr %.in, align 8, !tbaa !14
  %37 = icmp eq ptr %3, null
  %.pn36 = select i1 %37, ptr %2, ptr %3
  %.in35 = getelementptr inbounds nuw i8, ptr %.pn36, i64 16
  %38 = load ptr, ptr %.in35, align 8, !tbaa !14
  %39 = getelementptr inbounds nuw i8, ptr %2, i64 8
  %40 = load ptr, ptr %39, align 8, !tbaa !125
  %41 = getelementptr inbounds nuw i8, ptr %2, i64 16
  %42 = load ptr, ptr %41, align 8, !tbaa !126
  store i16 122, ptr %17, align 8, !tbaa !108
  %.sroa.2.0..sroa_idx = getelementptr inbounds nuw i8, ptr %17, i64 2
  store i16 %.1, ptr %.sroa.2.0..sroa_idx, align 2, !tbaa !108
  %.sroa.3.0..sroa_idx = getelementptr inbounds nuw i8, ptr %17, i64 4
  store i32 %35, ptr %.sroa.3.0..sroa_idx, align 4, !tbaa !7
  %.sroa.4.0..sroa_idx = getelementptr inbounds nuw i8, ptr %17, i64 8
  store ptr %36, ptr %.sroa.4.0..sroa_idx, align 8, !tbaa !14
  %.sroa.5.0..sroa_idx = getelementptr inbounds nuw i8, ptr %17, i64 16
  store ptr %38, ptr %.sroa.5.0..sroa_idx, align 8, !tbaa !14
  %.sroa.6.0..sroa_idx = getelementptr inbounds nuw i8, ptr %17, i64 24
  store ptr %1, ptr %.sroa.6.0..sroa_idx, align 8, !tbaa !103
  %.sroa.7.0..sroa_idx = getelementptr inbounds nuw i8, ptr %17, i64 32
  store ptr %3, ptr %.sroa.7.0..sroa_idx, align 8, !tbaa !103
  %.sroa.8.0..sroa_idx = getelementptr inbounds nuw i8, ptr %17, i64 40
  store ptr %40, ptr %.sroa.8.0..sroa_idx, align 8, !tbaa !14
  %.sroa.9.0..sroa_idx = getelementptr inbounds nuw i8, ptr %17, i64 48
  store ptr %42, ptr %.sroa.9.0..sroa_idx, align 8, !tbaa !14
  ret ptr %17
}